; Function Attrs: mustprogress nofree norecurse nosync nounwind willreturn memory(argmem: readwrite) uwtable
define hidden range(i32 -135, 1) i32 @psa_driver_get_tag_len(ptr noundef readonly %0, ptr noundef writeonly %1) local_unnamed_addr #4 {
  %3 = icmp eq ptr %0, null
  %4 = icmp eq ptr %1, null
  %or.cond = or i1 %3, %4
  br i1 %or.cond, label %8, label %5

5:                                                ; preds = %2
  %6 = getelementptr inbounds nuw i8, ptr %0, i64 47
  %7 = load i8, ptr %6, align 1
  store i8 %7, ptr %1, align 1
  br label %8

8:                                                ; preds = %2, %5
  %.0 = phi i32 [ 0, %5 ], [ -135, %2 ]
  ret i32 %.0
}